#include <math.h>
#include <stdio.h>
#include <stdlib.h>
#include <string.h>
#include <iostream>
using namespace std;

int main()
{
    int sushu(int);//shusu?????????????
    int num=0;//num???????
    cin>>num;
    for(int i=3;i<=num/2;i=i+2)
    {
        if(sushu(i)&&sushu(num-i))//???????1????????????if???
        cout<<i<<' '<<num-i<<endl;
    }
    return 0;
}
int sushu(int n1)//??n1?????
{
    if(n1==2||n1==3)return 1;
    for(int j=2;j<=sqrt(n1);j++)
    {
        if(n1%j==0)return 0;//n1????????????0
    }
    return 1;//n1???j??????????????1
}
